target datalayout = "e-m:e-p270:32:32-p271:32:32-p272:64:64-i64:64-i128:128-f80:128-n8:16:32:64-S128"
target triple = "x86_64-pc-linux-gnu"

%struct.Tree_Sto_t_ = type { i32, i32, [16 x i32], [16 x i32], [16 x i32], [16 x i32], [16 x %struct.Vec_Int_t_], ptr }
%struct.Vec_Int_t_ = type { i32, i32, ptr }

@s_Truths5Neg = internal global [6 x i32] [i32 1431655765, i32 858993459, i32 252645135, i32 16711935, i32 65535, i32 0], align 16
@s_Truths5 = internal global [6 x i32] [i32 -1431655766, i32 -858993460, i32 -252645136, i32 -16711936, i32 -65536, i32 0], align 16

; Function Attrs: inlinehint nounwind uwtable
define internal i32 @Abc_Tt5Cofactor1(i32 noundef %0, i32 noundef %1) #4 {
  %3 = alloca i32, align 4
  %4 = alloca i32, align 4
  store i32 %0, ptr %3, align 4, !tbaa !9
  store i32 %1, ptr %4, align 4, !tbaa !9
  %5 = load i32, ptr %3, align 4, !tbaa !9
  %6 = load i32, ptr %4, align 4, !tbaa !9
  %7 = sext i32 %6 to i64
  %8 = getelementptr inbounds [6 x i32], ptr @s_Truths5, i64 0, i64 %7
  %9 = load i32, ptr %8, align 4, !tbaa !9
  %10 = and i32 %5, %9
  %11 = load i32, ptr %3, align 4, !tbaa !9
  %12 = load i32, ptr %4, align 4, !tbaa !9
  %13 = sext i32 %12 to i64
  %14 = getelementptr inbounds [6 x i32], ptr @s_Truths5, i64 0, i64 %13
  %15 = load i32, ptr %14, align 4, !tbaa !9
  %16 = and i32 %11, %15
  %17 = load i32, ptr %4, align 4, !tbaa !9
  %18 = shl i32 1, %17
  %19 = lshr i32 %16, %18
  %20 = or i32 %10, %19
  ret i32 %20
}

; Function Attrs: inlinehint nounwind uwtable
define internal i32 @Abc_Tt5Cofactor0(i32 noundef %0, i32 noundef %1) #4 {
  %3 = alloca i32, align 4
  %4 = alloca i32, align 4
  store i32 %0, ptr %3, align 4, !tbaa !9
  store i32 %1, ptr %4, align 4, !tbaa !9
  %5 = load i32, ptr %3, align 4, !tbaa !9
  %6 = load i32, ptr %4, align 4, !tbaa !9
  %7 = sext i32 %6 to i64
  %8 = getelementptr inbounds [6 x i32], ptr @s_Truths5Neg, i64 0, i64 %7
  %9 = load i32, ptr %8, align 4, !tbaa !9
  %10 = and i32 %5, %9
  %11 = load i32, ptr %3, align 4, !tbaa !9
  %12 = load i32, ptr %4, align 4, !tbaa !9
  %13 = sext i32 %12 to i64
  %14 = getelementptr inbounds [6 x i32], ptr @s_Truths5Neg, i64 0, i64 %13
  %15 = load i32, ptr %14, align 4, !tbaa !9
  %16 = and i32 %11, %15
  %17 = load i32, ptr %4, align 4, !tbaa !9
  %18 = shl i32 1, %17
  %19 = shl i32 %16, %18
  %20 = or i32 %10, %19
  ret i32 %20
}

; Function Attrs: inlinehint nounwind uwtable
define internal i32 @Abc_TtEqual(ptr noundef %0, ptr noundef %1, i32 noundef %2) #4 {
  %4 = alloca i32, align 4
  %5 = alloca ptr, align 8
  %6 = alloca ptr, align 8
  %7 = alloca i32, align 4
  %8 = alloca i32, align 4
  %9 = alloca i32, align 4
  store ptr %0, ptr %5, align 8, !tbaa !12
  store ptr %1, ptr %6, align 8, !tbaa !12
  store i32 %2, ptr %7, align 4, !tbaa !9
  call void @llvm.lifetime.start.p0(i64 4, ptr %8) #13
  store i32 0, ptr %8, align 4, !tbaa !9
  br label %10

10:                                               ; preds = %28, %3
  %11 = load i32, ptr %8, align 4, !tbaa !9
  %12 = load i32, ptr %7, align 4, !tbaa !9
  %13 = icmp slt i32 %11, %12
  br i1 %13, label %14, label %31

14:                                               ; preds = %10
  %15 = load ptr, ptr %5, align 8, !tbaa !12
  %16 = load i32, ptr %8, align 4, !tbaa !9
  %17 = sext i32 %16 to i64
  %18 = getelementptr inbounds i64, ptr %15, i64 %17
  %19 = load i64, ptr %18, align 8, !tbaa !33
  %20 = load ptr, ptr %6, align 8, !tbaa !12
  %21 = load i32, ptr %8, align 4, !tbaa !9
  %22 = sext i32 %21 to i64
  %23 = getelementptr inbounds i64, ptr %20, i64 %22
  %24 = load i64, ptr %23, align 8, !tbaa !33
  %25 = icmp ne i64 %19, %24
  br i1 %25, label %26, label %27

26:                                               ; preds = %14
  store i32 0, ptr %4, align 4
  store i32 1, ptr %9, align 4
  br label %32

27:                                               ; preds = %14
  br label %28

28:                                               ; preds = %27
  %29 = load i32, ptr %8, align 4, !tbaa !9
  %30 = add nsw i32 %29, 1
  store i32 %30, ptr %8, align 4, !tbaa !9
  br label %10, !llvm.loop !35

31:                                               ; preds = %10
  store i32 1, ptr %4, align 4
  store i32 1, ptr %9, align 4
  br label %32

32:                                               ; preds = %31, %26
  call void @llvm.lifetime.end.p0(i64 4, ptr %8) #13
  %33 = load i32, ptr %4, align 4
  ret i32 %33
}

; Function Attrs: inlinehint nounwind uwtable
define internal i32 @Vec_IntEntry(ptr noundef %0, i32 noundef %1) #4 {
  %3 = alloca ptr, align 8
  %4 = alloca i32, align 4
  store ptr %0, ptr %3, align 8, !tbaa !21
  store i32 %1, ptr %4, align 4, !tbaa !9
  %5 = load ptr, ptr %3, align 8, !tbaa !21
  %6 = getelementptr inbounds nuw %struct.Vec_Int_t_, ptr %5, i32 0, i32 2
  %7 = load ptr, ptr %6, align 8, !tbaa !26
  %8 = load i32, ptr %4, align 4, !tbaa !9
  %9 = sext i32 %8 to i64
  %10 = getelementptr inbounds i32, ptr %7, i64 %9
  %11 = load i32, ptr %10, align 4, !tbaa !9
  ret i32 %11
}

; Function Attrs: inlinehint nounwind uwtable
define internal i32 @Vec_IntSize(ptr noundef %0) #4 {
  %2 = alloca ptr, align 8
  store ptr %0, ptr %2, align 8, !tbaa !21
  %3 = load ptr, ptr %2, align 8, !tbaa !21
  %4 = getelementptr inbounds nuw %struct.Vec_Int_t_, ptr %3, i32 0, i32 1
  %5 = load i32, ptr %4, align 4, !tbaa !23
  ret i32 %5
}

; Function Attrs: inlinehint nounwind uwtable
define internal i32 @Abc_TtWordNum(i32 noundef %0) #4 {
  %2 = alloca i32, align 4
  store i32 %0, ptr %2, align 4, !tbaa !9
  %3 = load i32, ptr %2, align 4, !tbaa !9
  %4 = icmp sle i32 %3, 6
  br i1 %4, label %5, label %6

5:                                                ; preds = %1
  br label %10

6:                                                ; preds = %1
  %7 = load i32, ptr %2, align 4, !tbaa !9
  %8 = sub nsw i32 %7, 6
  %9 = shl i32 1, %8
  br label %10

10:                                               ; preds = %6, %5
  %11 = phi i32 [ 1, %5 ], [ %9, %6 ]
  ret i32 %11
}

; Function Attrs: inlinehint nounwind uwtable
define internal void @Vec_IntClear(ptr noundef %0) #4 {
  %2 = alloca ptr, align 8
  store ptr %0, ptr %2, align 8, !tbaa !21
  %3 = load ptr, ptr %2, align 8, !tbaa !21
  %4 = getelementptr inbounds nuw %struct.Vec_Int_t_, ptr %3, i32 0, i32 1
  store i32 0, ptr %4, align 4, !tbaa !23
  ret void
}

; Function Attrs: nounwind uwtable
define i32 @Gia_ManProcessLevel(ptr noundef %0, i32 noundef %1) #0 {
  %3 = alloca ptr, align 8
  %4 = alloca i32, align 4
  %5 = alloca i32, align 4
  %6 = alloca i32, align 4
  %7 = alloca i32, align 4
  %8 = alloca i32, align 4
  %9 = alloca ptr, align 8
  %10 = alloca ptr, align 8
  %11 = alloca i32, align 4
  %12 = alloca i32, align 4
  %13 = alloca i32, align 4
  store ptr %0, ptr %3, align 8, !tbaa !3
  store i32 %1, ptr %4, align 4, !tbaa !9
  call void @llvm.lifetime.start.p0(i64 4, ptr %5) #13
  call void @llvm.lifetime.start.p0(i64 4, ptr %6) #13
  call void @llvm.lifetime.start.p0(i64 4, ptr %7) #13
  store i32 0, ptr %7, align 4, !tbaa !9
  %14 = load ptr, ptr %3, align 8, !tbaa !3
  %15 = getelementptr inbounds nuw %struct.Tree_Sto_t_, ptr %14, i32 0, i32 6
  %16 = getelementptr inbounds [16 x %struct.Vec_Int_t_], ptr %15, i64 0, i64 0
  %17 = load i32, ptr %4, align 4, !tbaa !9
  %18 = sext i32 %17 to i64
  %19 = getelementptr inbounds %struct.Vec_Int_t_, ptr %16, i64 %18
  call void @Vec_IntClear(ptr noundef %19)
  %20 = load i32, ptr %4, align 4, !tbaa !9
  %21 = icmp sgt i32 %20, 5
  br i1 %21, label %22, label %83

22:                                               ; preds = %2
  call void @llvm.lifetime.start.p0(i64 4, ptr %8) #13
  %23 = load i32, ptr %4, align 4, !tbaa !9
  %24 = call i32 @Abc_TtWordNum(i32 noundef %23)
  store i32 %24, ptr %8, align 4, !tbaa !9
  store i32 0, ptr %5, align 4, !tbaa !9
  br label %25

25:                                               ; preds = %79, %22
  %26 = load i32, ptr %5, align 4, !tbaa !9
  %27 = load ptr, ptr %3, align 8, !tbaa !3
  %28 = getelementptr inbounds nuw %struct.Tree_Sto_t_, ptr %27, i32 0, i32 6
  %29 = getelementptr inbounds [16 x %struct.Vec_Int_t_], ptr %28, i64 0, i64 0
  %30 = load i32, ptr %4, align 4, !tbaa !9
  %31 = sext i32 %30 to i64
  %32 = getelementptr inbounds %struct.Vec_Int_t_, ptr %29, i64 %31
  %33 = getelementptr inbounds %struct.Vec_Int_t_, ptr %32, i64 1
  %34 = call i32 @Vec_IntSize(ptr noundef %33)
  %35 = icmp slt i32 %26, %34
  br i1 %35, label %36, label %46

36:                                               ; preds = %25
  %37 = load ptr, ptr %3, align 8, !tbaa !3
  %38 = getelementptr inbounds nuw %struct.Tree_Sto_t_, ptr %37, i32 0, i32 6
  %39 = getelementptr inbounds [16 x %struct.Vec_Int_t_], ptr %38, i64 0, i64 0
  %40 = load i32, ptr %4, align 4, !tbaa !9
  %41 = sext i32 %40 to i64
  %42 = getelementptr inbounds %struct.Vec_Int_t_, ptr %39, i64 %41
  %43 = getelementptr inbounds %struct.Vec_Int_t_, ptr %42, i64 1
  %44 = load i32, ptr %5, align 4, !tbaa !9
  %45 = call i32 @Vec_IntEntry(ptr noundef %43, i32 noundef %44)
  store i32 %45, ptr %6, align 4, !tbaa !9
  br label %46

46:                                               ; preds = %36, %25
  %47 = phi i1 [ false, %25 ], [ true, %36 ]
  br i1 %47, label %48, label %82

48:                                               ; preds = %46
  call void @llvm.lifetime.start.p0(i64 8, ptr %9) #13
  %49 = load ptr, ptr %3, align 8, !tbaa !3
  %50 = getelementptr inbounds nuw %struct.Tree_Sto_t_, ptr %49, i32 0, i32 7
  %51 = load ptr, ptr %50, align 8, !tbaa !14
  %52 = load i32, ptr %6, align 4, !tbaa !9
  %53 = sext i32 %52 to i64
  %54 = getelementptr inbounds i64, ptr %51, i64 %53
  store ptr %54, ptr %9, align 8, !tbaa !12
  call void @llvm.lifetime.start.p0(i64 8, ptr %10) #13
  %55 = load ptr, ptr %9, align 8, !tbaa !12
  %56 = load i32, ptr %8, align 4, !tbaa !9
  %57 = sext i32 %56 to i64
  %58 = getelementptr inbounds i64, ptr %55, i64 %57
  store ptr %58, ptr %10, align 8, !tbaa !12
  %59 = load ptr, ptr %3, align 8, !tbaa !3
  %60 = load i32, ptr %4, align 4, !tbaa !9
  %61 = load ptr, ptr %9, align 8, !tbaa !12
  %62 = call i32 @Gia_ManFindOrAddNode(ptr noundef %59, i32 noundef %60, i32 noundef -1, ptr noundef %61)
  %63 = load ptr, ptr %9, align 8, !tbaa !12
  %64 = load ptr, ptr %10, align 8, !tbaa !12
  %65 = load i32, ptr %8, align 4, !tbaa !9
  %66 = call i32 @Abc_TtEqual(ptr noundef %63, ptr noundef %64, i32 noundef %65)
  %67 = icmp ne i32 %66, 0
  br i1 %67, label %68, label %69

68:                                               ; preds = %48
  store i32 4, ptr %11, align 4
  br label %76

69:                                               ; preds = %48
  %70 = load ptr, ptr %3, align 8, !tbaa !3
  %71 = load i32, ptr %4, align 4, !tbaa !9
  %72 = load ptr, ptr %10, align 8, !tbaa !12
  %73 = call i32 @Gia_ManFindOrAddNode(ptr noundef %70, i32 noundef %71, i32 noundef -1, ptr noundef %72)
  %74 = load i32, ptr %7, align 4, !tbaa !9
  %75 = add nsw i32 %74, 1
  store i32 %75, ptr %7, align 4, !tbaa !9
  store i32 0, ptr %11, align 4
  br label %76

76:                                               ; preds = %69, %68
  call void @llvm.lifetime.end.p0(i64 8, ptr %10) #13
  call void @llvm.lifetime.end.p0(i64 8, ptr %9) #13
  %77 = load i32, ptr %11, align 4
  switch i32 %77, label %167 [
    i32 0, label %78
    i32 4, label %79
  ]

78:                                               ; preds = %76
  br label %79

79:                                               ; preds = %78, %76
  %80 = load i32, ptr %5, align 4, !tbaa !9
  %81 = add nsw i32 %80, 1
  store i32 %81, ptr %5, align 4, !tbaa !9
  br label %25, !llvm.loop !36

82:                                               ; preds = %46
  call void @llvm.lifetime.end.p0(i64 4, ptr %8) #13
  br label %165

83:                                               ; preds = %2
  store i32 0, ptr %5, align 4, !tbaa !9
  br label %84

84:                                               ; preds = %161, %83
  %85 = load i32, ptr %5, align 4, !tbaa !9
  %86 = load ptr, ptr %3, align 8, !tbaa !3
  %87 = getelementptr inbounds nuw %struct.Tree_Sto_t_, ptr %86, i32 0, i32 6
  %88 = getelementptr inbounds [16 x %struct.Vec_Int_t_], ptr %87, i64 0, i64 0
  %89 = load i32, ptr %4, align 4, !tbaa !9
  %90 = sext i32 %89 to i64
  %91 = getelementptr inbounds %struct.Vec_Int_t_, ptr %88, i64 %90
  %92 = getelementptr inbounds %struct.Vec_Int_t_, ptr %91, i64 1
  %93 = call i32 @Vec_IntSize(ptr noundef %92)
  %94 = icmp slt i32 %85, %93
  br i1 %94, label %95, label %105

95:                                               ; preds = %84
  %96 = load ptr, ptr %3, align 8, !tbaa !3
  %97 = getelementptr inbounds nuw %struct.Tree_Sto_t_, ptr %96, i32 0, i32 6
  %98 = getelementptr inbounds [16 x %struct.Vec_Int_t_], ptr %97, i64 0, i64 0
  %99 = load i32, ptr %4, align 4, !tbaa !9
  %100 = sext i32 %99 to i64
  %101 = getelementptr inbounds %struct.Vec_Int_t_, ptr %98, i64 %100
  %102 = getelementptr inbounds %struct.Vec_Int_t_, ptr %101, i64 1
  %103 = load i32, ptr %5, align 4, !tbaa !9
  %104 = call i32 @Vec_IntEntry(ptr noundef %102, i32 noundef %103)
  store i32 %104, ptr %6, align 4, !tbaa !9
  br label %105

105:                                              ; preds = %95, %84
  %106 = phi i1 [ false, %84 ], [ true, %95 ]
  br i1 %106, label %107, label %164

107:                                              ; preds = %105
  call void @llvm.lifetime.start.p0(i64 4, ptr %12) #13
  %108 = load i32, ptr %4, align 4, !tbaa !9
  %109 = icmp slt i32 %108, 5
  br i1 %109, label %110, label %114

110:                                              ; preds = %107
  %111 = load i32, ptr %6, align 4, !tbaa !9
  %112 = load i32, ptr %4, align 4, !tbaa !9
  %113 = call i32 @Abc_Tt5Cofactor0(i32 noundef %111, i32 noundef %112)
  br label %123

114:                                              ; preds = %107
  %115 = load ptr, ptr %3, align 8, !tbaa !3
  %116 = getelementptr inbounds nuw %struct.Tree_Sto_t_, ptr %115, i32 0, i32 7
  %117 = load ptr, ptr %116, align 8, !tbaa !14
  %118 = load i32, ptr %6, align 4, !tbaa !9
  %119 = sext i32 %118 to i64
  %120 = getelementptr inbounds i64, ptr %117, i64 %119
  %121 = load i64, ptr %120, align 8, !tbaa !33
  %122 = trunc i64 %121 to i32
  br label %123

123:                                              ; preds = %114, %110
  %124 = phi i32 [ %113, %110 ], [ %122, %114 ]
  store i32 %124, ptr %12, align 4, !tbaa !9
  call void @llvm.lifetime.start.p0(i64 4, ptr %13) #13
  %125 = load i32, ptr %4, align 4, !tbaa !9
  %126 = icmp slt i32 %125, 5
  br i1 %126, label %127, label %131

127:                                              ; preds = %123
  %128 = load i32, ptr %6, align 4, !tbaa !9
  %129 = load i32, ptr %4, align 4, !tbaa !9
  %130 = call i32 @Abc_Tt5Cofactor1(i32 noundef %128, i32 noundef %129)
  br label %141

131:                                              ; preds = %123
  %132 = load ptr, ptr %3, align 8, !tbaa !3
  %133 = getelementptr inbounds nuw %struct.Tree_Sto_t_, ptr %132, i32 0, i32 7
  %134 = load ptr, ptr %133, align 8, !tbaa !14
  %135 = load i32, ptr %6, align 4, !tbaa !9
  %136 = sext i32 %135 to i64
  %137 = getelementptr inbounds i64, ptr %134, i64 %136
  %138 = load i64, ptr %137, align 8, !tbaa !33
  %139 = lshr i64 %138, 32
  %140 = trunc i64 %139 to i32
  br label %141

141:                                              ; preds = %131, %127
  %142 = phi i32 [ %130, %127 ], [ %140, %131 ]
  store i32 %142, ptr %13, align 4, !tbaa !9
  %143 = load ptr, ptr %3, align 8, !tbaa !3
  %144 = load i32, ptr %4, align 4, !tbaa !9
  %145 = load i32, ptr %12, align 4, !tbaa !9
  %146 = call i32 @Gia_ManFindOrAddNode(ptr noundef %143, i32 noundef %144, i32 noundef %145, ptr noundef null)
  %147 = load i32, ptr %12, align 4, !tbaa !9
  %148 = load i32, ptr %13, align 4, !tbaa !9
  %149 = icmp eq i32 %147, %148
  br i1 %149, label %150, label %151

150:                                              ; preds = %141
  store i32 7, ptr %11, align 4
  br label %158

151:                                              ; preds = %141
  %152 = load ptr, ptr %3, align 8, !tbaa !3
  %153 = load i32, ptr %4, align 4, !tbaa !9
  %154 = load i32, ptr %13, align 4, !tbaa !9
  %155 = call i32 @Gia_ManFindOrAddNode(ptr noundef %152, i32 noundef %153, i32 noundef %154, ptr noundef null)
  %156 = load i32, ptr %7, align 4, !tbaa !9
  %157 = add nsw i32 %156, 1
  store i32 %157, ptr %7, align 4, !tbaa !9
  store i32 0, ptr %11, align 4
  br label %158

158:                                              ; preds = %151, %150
  call void @llvm.lifetime.end.p0(i64 4, ptr %13) #13
  call void @llvm.lifetime.end.p0(i64 4, ptr %12) #13
  %159 = load i32, ptr %11, align 4
  switch i32 %159, label %167 [
    i32 0, label %160
    i32 7, label %161
  ]

160:                                              ; preds = %158
  br label %161

161:                                              ; preds = %160, %158
  %162 = load i32, ptr %5, align 4, !tbaa !9
  %163 = add nsw i32 %162, 1
  store i32 %163, ptr %5, align 4, !tbaa !9
  br label %84, !llvm.loop !37

164:                                              ; preds = %105
  br label %165

165:                                              ; preds = %164, %82
  %166 = load i32, ptr %7, align 4, !tbaa !9
  store i32 1, ptr %11, align 4
  call void @llvm.lifetime.end.p0(i64 4, ptr %7) #13
  call void @llvm.lifetime.end.p0(i64 4, ptr %6) #13
  call void @llvm.lifetime.end.p0(i64 4, ptr %5) #13
  ret i32 %166

167:                                              ; preds = %158, %76
  unreachable
}