; Function Attrs: nounwind uwtable
define i32 @Gia_ManProcessLevel(ptr noundef captures(none) %0, i32 noundef %1) local_unnamed_addr #0 {
  %3 = getelementptr inbounds nuw i8, ptr %0, i64 264
  %4 = sext i32 %1 to i64
  %5 = getelementptr inbounds %struct.Vec_Int_t_, ptr %3, i64 %4
  %6 = getelementptr inbounds nuw i8, ptr %5, i64 4
  store i32 0, ptr %6, align 4, !tbaa !18
  %7 = icmp sgt i32 %1, 5
  %8 = getelementptr i8, ptr %5, i64 20
  %.val5969 = load i32, ptr %8, align 4, !tbaa !18
  %9 = icmp sgt i32 %.val5969, 0
  br i1 %7, label %34, label %.preheader

.preheader:                                       ; preds = %2
  br i1 %9, label %.lr.ph, label %.critedge2

.lr.ph:                                           ; preds = %.preheader
  %10 = getelementptr i8, ptr %5, i64 24
  %.not = icmp eq i32 %1, 5
  %11 = shl nuw nsw i32 1, %1
  %12 = getelementptr inbounds nuw i8, ptr %0, i64 520
  br i1 %.not, label %.lr.ph.split.us, label %.lr.ph.split

.lr.ph.split.us:                                  ; preds = %.lr.ph, %27
  %indvars.iv79 = phi i64 [ %indvars.iv.next80, %27 ], [ 0, %.lr.ph ]
  %.367.us = phi i32 [ %.4.us, %27 ], [ 0, %.lr.ph ]
  %.val60.us = load ptr, ptr %10, align 8, !tbaa !21
  %13 = getelementptr inbounds nuw i32, ptr %.val60.us, i64 %indvars.iv79
  %14 = load i32, ptr %13, align 4, !tbaa !4
  %15 = load ptr, ptr %12, align 8, !tbaa !12
  %16 = sext i32 %14 to i64
  %17 = getelementptr inbounds i64, ptr %15, i64 %16
  %18 = load i64, ptr %17, align 8, !tbaa !16
  %19 = trunc i64 %18 to i32
  %20 = lshr i64 %18, 32
  %21 = trunc nuw i64 %20 to i32
  %22 = tail call i32 @Gia_ManFindOrAddNode(ptr noundef nonnull %0, i32 noundef 5, i32 noundef %19, ptr noundef null)
  %23 = icmp eq i32 %19, %21
  br i1 %23, label %27, label %24

24:                                               ; preds = %.lr.ph.split.us
  %25 = tail call i32 @Gia_ManFindOrAddNode(ptr noundef nonnull %0, i32 noundef 5, i32 noundef %21, ptr noundef null)
  %26 = add nsw i32 %.367.us, 1
  br label %27

27:                                               ; preds = %24, %.lr.ph.split.us
  %.4.us = phi i32 [ %26, %24 ], [ %.367.us, %.lr.ph.split.us ]
  %indvars.iv.next80 = add nuw nsw i64 %indvars.iv79, 1
  %.val.us = load i32, ptr %8, align 4, !tbaa !18
  %28 = sext i32 %.val.us to i64
  %29 = icmp slt i64 %indvars.iv.next80, %28
  br i1 %29, label %.lr.ph.split.us, label %.critedge2, !llvm.loop !32

.lr.ph.split:                                     ; preds = %.lr.ph
  %30 = getelementptr inbounds [6 x i32], ptr @s_Truths5, i64 0, i64 %4
  %31 = getelementptr inbounds [6 x i32], ptr @s_Truths5Neg, i64 0, i64 %4
  %32 = load i32, ptr %31, align 4, !tbaa !4
  %33 = load i32, ptr %30, align 4, !tbaa !4
  br label %64

34:                                               ; preds = %2
  br i1 %9, label %.lr.ph72, label %.critedge2

.lr.ph72:                                         ; preds = %34
  %35 = add nsw i32 %1, -6
  %36 = shl nuw i32 1, %35
  %37 = getelementptr i8, ptr %5, i64 24
  %38 = getelementptr inbounds nuw i8, ptr %0, i64 520
  %39 = sext i32 %36 to i64
  %.not64 = icmp eq i32 %35, 31
  %wide.trip.count.i = zext nneg i32 %36 to i64
  br i1 %.not64, label %Abc_TtEqual.exit.thread.us, label %.lr.ph.preheader.i

Abc_TtEqual.exit.thread.us:                       ; preds = %.lr.ph72, %Abc_TtEqual.exit.thread.us
  %indvars.iv85 = phi i64 [ %indvars.iv.next86, %Abc_TtEqual.exit.thread.us ], [ 0, %.lr.ph72 ]
  %.val61.us = load ptr, ptr %37, align 8, !tbaa !21
  %40 = getelementptr inbounds nuw i32, ptr %.val61.us, i64 %indvars.iv85
  %41 = load i32, ptr %40, align 4, !tbaa !4
  %42 = load ptr, ptr %38, align 8, !tbaa !12
  %43 = sext i32 %41 to i64
  %44 = getelementptr inbounds i64, ptr %42, i64 %43
  %45 = tail call i32 @Gia_ManFindOrAddNode(ptr noundef nonnull %0, i32 noundef %1, i32 noundef -1, ptr noundef %44)
  %indvars.iv.next86 = add nuw nsw i64 %indvars.iv85, 1
  %.val59.us = load i32, ptr %8, align 4, !tbaa !18
  %46 = sext i32 %.val59.us to i64
  %47 = icmp slt i64 %indvars.iv.next86, %46
  br i1 %47, label %Abc_TtEqual.exit.thread.us, label %.critedge2, !llvm.loop !33

.lr.ph.preheader.i:                               ; preds = %.lr.ph72, %Abc_TtEqual.exit.thread
  %indvars.iv82 = phi i64 [ %indvars.iv.next83, %Abc_TtEqual.exit.thread ], [ 0, %.lr.ph72 ]
  %.05370 = phi i32 [ %.154, %Abc_TtEqual.exit.thread ], [ 0, %.lr.ph72 ]
  %.val61 = load ptr, ptr %37, align 8, !tbaa !21
  %48 = getelementptr inbounds nuw i32, ptr %.val61, i64 %indvars.iv82
  %49 = load i32, ptr %48, align 4, !tbaa !4
  %50 = load ptr, ptr %38, align 8, !tbaa !12
  %51 = sext i32 %49 to i64
  %52 = getelementptr inbounds i64, ptr %50, i64 %51
  %53 = getelementptr inbounds i64, ptr %52, i64 %39
  %54 = tail call i32 @Gia_ManFindOrAddNode(ptr noundef nonnull %0, i32 noundef %1, i32 noundef -1, ptr noundef %52)
  br label %.lr.ph.i

55:                                               ; preds = %.lr.ph.i
  %indvars.iv.next.i = add nuw nsw i64 %indvars.iv.i, 1
  %exitcond.not.i = icmp eq i64 %indvars.iv.next.i, %wide.trip.count.i
  br i1 %exitcond.not.i, label %Abc_TtEqual.exit.thread, label %.lr.ph.i, !llvm.loop !29

.lr.ph.i:                                         ; preds = %55, %.lr.ph.preheader.i
  %indvars.iv.i = phi i64 [ 0, %.lr.ph.preheader.i ], [ %indvars.iv.next.i, %55 ]
  %56 = getelementptr inbounds nuw i64, ptr %52, i64 %indvars.iv.i
  %57 = load i64, ptr %56, align 8, !tbaa !16
  %58 = getelementptr inbounds nuw i64, ptr %53, i64 %indvars.iv.i
  %59 = load i64, ptr %58, align 8, !tbaa !16
  %.not.i = icmp eq i64 %57, %59
  br i1 %.not.i, label %55, label %Abc_TtEqual.exit

Abc_TtEqual.exit:                                 ; preds = %.lr.ph.i
  %60 = tail call i32 @Gia_ManFindOrAddNode(ptr noundef nonnull %0, i32 noundef %1, i32 noundef -1, ptr noundef nonnull %53)
  %61 = add nsw i32 %.05370, 1
  br label %Abc_TtEqual.exit.thread

Abc_TtEqual.exit.thread:                          ; preds = %55, %Abc_TtEqual.exit
  %.154 = phi i32 [ %61, %Abc_TtEqual.exit ], [ %.05370, %55 ]
  %indvars.iv.next83 = add nuw nsw i64 %indvars.iv82, 1
  %.val59 = load i32, ptr %8, align 4, !tbaa !18
  %62 = sext i32 %.val59 to i64
  %63 = icmp slt i64 %indvars.iv.next83, %62
  br i1 %63, label %.lr.ph.preheader.i, label %.critedge2, !llvm.loop !33

64:                                               ; preds = %.lr.ph.split, %78
  %indvars.iv = phi i64 [ 0, %.lr.ph.split ], [ %indvars.iv.next, %78 ]
  %.367 = phi i32 [ 0, %.lr.ph.split ], [ %.4, %78 ]
  %.val60 = load ptr, ptr %10, align 8, !tbaa !21
  %65 = getelementptr inbounds nuw i32, ptr %.val60, i64 %indvars.iv
  %66 = load i32, ptr %65, align 4, !tbaa !4
  %67 = and i32 %32, %66
  %68 = shl i32 %67, %11
  %69 = or i32 %68, %67
  %70 = and i32 %33, %66
  %71 = lshr i32 %70, %11
  %72 = or i32 %71, %70
  %73 = tail call i32 @Gia_ManFindOrAddNode(ptr noundef nonnull %0, i32 noundef %1, i32 noundef %69, ptr noundef null)
  %74 = icmp eq i32 %69, %72
  br i1 %74, label %78, label %75

75:                                               ; preds = %64
  %76 = tail call i32 @Gia_ManFindOrAddNode(ptr noundef nonnull %0, i32 noundef %1, i32 noundef %72, ptr noundef null)
  %77 = add nsw i32 %.367, 1
  br label %78

78:                                               ; preds = %64, %75
  %.4 = phi i32 [ %77, %75 ], [ %.367, %64 ]
  %indvars.iv.next = add nuw nsw i64 %indvars.iv, 1
  %.val = load i32, ptr %8, align 4, !tbaa !18
  %79 = sext i32 %.val to i64
  %80 = icmp slt i64 %indvars.iv.next, %79
  br i1 %80, label %64, label %.critedge2, !llvm.loop !32

.critedge2:                                       ; preds = %78, %27, %Abc_TtEqual.exit.thread, %Abc_TtEqual.exit.thread.us, %.preheader, %34
  %.2 = phi i32 [ 0, %34 ], [ 0, %.preheader ], [ 0, %Abc_TtEqual.exit.thread.us ], [ %.154, %Abc_TtEqual.exit.thread ], [ %.4.us, %27 ], [ %.4, %78 ]
  ret i32 %.2
}